target datalayout = "e-m:e-p270:32:32-p271:32:32-p272:64:64-i64:64-i128:128-f80:128-n8:16:32:64-S128"
target triple = "x86_64-pc-linux-gnu"

%struct.btInfMaskConverter = type { %union.anon }
%union.anon = type { float }

$_ZN18btInfMaskConverterC2Ei = comdat any

$_Z15gim_simd_memcpyPvPKvm = comdat any

@_ZL14btInfinityMask = internal global %struct.btInfMaskConverter zeroinitializer, align 4
@_ZL9g_allocfn = internal global ptr null, align 8
@_ZL10g_allocafn = internal global ptr null, align 8
@_ZL11g_reallocfn = internal global ptr null, align 8
@_ZL8g_freefn = internal global ptr null, align 8
@llvm.global_ctors = appending global [1 x { i32, ptr, ptr }] [{ i32, ptr, ptr } { i32 65535, ptr @_GLOBAL__sub_I_gim_memory.cpp, ptr null }]

; Function Attrs: uwtable
define internal void @__cxx_global_var_init() #0 section ".text.startup" {
  call void @_ZN18btInfMaskConverterC2Ei(ptr noundef nonnull align 4 dereferenceable(4) @_ZL14btInfinityMask, i32 noundef 2139095040)
  ret void
}

; Function Attrs: mustprogress nounwind uwtable
define linkonce_odr dso_local void @_ZN18btInfMaskConverterC2Ei(ptr noundef nonnull align 4 dereferenceable(4) %0, i32 noundef %1) unnamed_addr #1 comdat align 2 {
  %3 = alloca ptr, align 8
  %4 = alloca i32, align 4
  store ptr %0, ptr %3, align 8, !tbaa !4
  store i32 %1, ptr %4, align 4, !tbaa !9
  %5 = load ptr, ptr %3, align 8
  %6 = getelementptr inbounds nuw %struct.btInfMaskConverter, ptr %5, i32 0, i32 0
  %7 = load i32, ptr %4, align 4, !tbaa !9
  store i32 %7, ptr %6, align 4, !tbaa !11
  ret void
}

; Function Attrs: mustprogress nounwind uwtable
define dso_local void @_Z21gim_set_alloc_handlerPFPvmE(ptr noundef %0) #1 {
  %2 = alloca ptr, align 8
  store ptr %0, ptr %2, align 8, !tbaa !12
  %3 = load ptr, ptr %2, align 8, !tbaa !12
  store ptr %3, ptr @_ZL9g_allocfn, align 8, !tbaa !12
  ret void
}

; Function Attrs: mustprogress nounwind uwtable
define dso_local void @_Z22gim_set_alloca_handlerPFPvmE(ptr noundef %0) #1 {
  %2 = alloca ptr, align 8
  store ptr %0, ptr %2, align 8, !tbaa !12
  %3 = load ptr, ptr %2, align 8, !tbaa !12
  store ptr %3, ptr @_ZL10g_allocafn, align 8, !tbaa !12
  ret void
}

; Function Attrs: mustprogress nounwind uwtable
define dso_local void @_Z23gim_set_realloc_handlerPFPvS_mmE(ptr noundef %0) #1 {
  %2 = alloca ptr, align 8
  store ptr %0, ptr %2, align 8, !tbaa !12
  %3 = load ptr, ptr %2, align 8, !tbaa !12
  store ptr %3, ptr @_ZL11g_reallocfn, align 8, !tbaa !12
  ret void
}

; Function Attrs: mustprogress nounwind uwtable
define dso_local void @_Z20gim_set_free_handlerPFvPvE(ptr noundef %0) #1 {
  %2 = alloca ptr, align 8
  store ptr %0, ptr %2, align 8, !tbaa !12
  %3 = load ptr, ptr %2, align 8, !tbaa !12
  store ptr %3, ptr @_ZL8g_freefn, align 8, !tbaa !12
  ret void
}

; Function Attrs: mustprogress nounwind uwtable
define dso_local noundef ptr @_Z21gim_get_alloc_handlerv() #1 {
  %1 = load ptr, ptr @_ZL9g_allocfn, align 8, !tbaa !12
  ret ptr %1
}

; Function Attrs: mustprogress nounwind uwtable
define dso_local noundef ptr @_Z22gim_get_alloca_handlerv() #1 {
  %1 = load ptr, ptr @_ZL10g_allocafn, align 8, !tbaa !12
  ret ptr %1
}

; Function Attrs: mustprogress nounwind uwtable
define dso_local noundef ptr @_Z23gim_get_realloc_handlerv() #1 {
  %1 = load ptr, ptr @_ZL11g_reallocfn, align 8, !tbaa !12
  ret ptr %1
}

; Function Attrs: mustprogress nounwind uwtable
define dso_local noundef ptr @_Z20gim_get_free_handlerv() #1 {
  %1 = load ptr, ptr @_ZL8g_freefn, align 8, !tbaa !12
  ret ptr %1
}

; Function Attrs: mustprogress uwtable
define dso_local noundef ptr @_Z9gim_allocm(i64 noundef %0) #2 {
  %2 = alloca i64, align 8
  %3 = alloca ptr, align 8
  store i64 %0, ptr %2, align 8, !tbaa !13
  call void @llvm.lifetime.start.p0(i64 8, ptr %3) #8
  %4 = load ptr, ptr @_ZL9g_allocfn, align 8, !tbaa !12
  %5 = icmp ne ptr %4, null
  br i1 %5, label %6, label %10

6:                                                ; preds = %1
  %7 = load ptr, ptr @_ZL9g_allocfn, align 8, !tbaa !12
  %8 = load i64, ptr %2, align 8, !tbaa !13
  %9 = call noundef ptr %7(i64 noundef %8)
  store ptr %9, ptr %3, align 8, !tbaa !12
  br label %13

10:                                               ; preds = %1
  %11 = load i64, ptr %2, align 8, !tbaa !13
  %12 = call noalias ptr @malloc(i64 noundef %11) #9
  store ptr %12, ptr %3, align 8, !tbaa !12
  br label %13

13:                                               ; preds = %10, %6
  %14 = load ptr, ptr %3, align 8, !tbaa !12
  call void @llvm.lifetime.end.p0(i64 8, ptr %3) #8
  ret ptr %14
}

; Function Attrs: nocallback nofree nosync nounwind willreturn memory(argmem: readwrite)
declare void @llvm.lifetime.start.p0(i64 immarg, ptr captures(none)) #3

; Function Attrs: nounwind allocsize(0)
declare noalias ptr @malloc(i64 noundef) #4

; Function Attrs: nocallback nofree nosync nounwind willreturn memory(argmem: readwrite)
declare void @llvm.lifetime.end.p0(i64 immarg, ptr captures(none)) #3

; Function Attrs: mustprogress uwtable
define dso_local noundef ptr @_Z10gim_allocam(i64 noundef %0) #2 {
  %2 = alloca ptr, align 8
  %3 = alloca i64, align 8
  store i64 %0, ptr %3, align 8, !tbaa !13
  %4 = load ptr, ptr @_ZL10g_allocafn, align 8, !tbaa !12
  %5 = icmp ne ptr %4, null
  br i1 %5, label %6, label %10

6:                                                ; preds = %1
  %7 = load ptr, ptr @_ZL10g_allocafn, align 8, !tbaa !12
  %8 = load i64, ptr %3, align 8, !tbaa !13
  %9 = call noundef ptr %7(i64 noundef %8)
  store ptr %9, ptr %2, align 8
  br label %13

10:                                               ; preds = %1
  %11 = load i64, ptr %3, align 8, !tbaa !13
  %12 = call noundef ptr @_Z9gim_allocm(i64 noundef %11)
  store ptr %12, ptr %2, align 8
  br label %13

13:                                               ; preds = %10, %6
  %14 = load ptr, ptr %2, align 8
  ret ptr %14
}

; Function Attrs: mustprogress uwtable
define dso_local noundef ptr @_Z11gim_reallocPvmm(ptr noundef %0, i64 noundef %1, i64 noundef %2) #2 {
  %4 = alloca ptr, align 8
  %5 = alloca i64, align 8
  %6 = alloca i64, align 8
  %7 = alloca ptr, align 8
  %8 = alloca i64, align 8
  store ptr %0, ptr %4, align 8, !tbaa !12
  store i64 %1, ptr %5, align 8, !tbaa !13
  store i64 %2, ptr %6, align 8, !tbaa !13
  call void @llvm.lifetime.start.p0(i64 8, ptr %7) #8
  %9 = load i64, ptr %6, align 8, !tbaa !13
  %10 = call noundef ptr @_Z9gim_allocm(i64 noundef %9)
  store ptr %10, ptr %7, align 8, !tbaa !12
  call void @llvm.lifetime.start.p0(i64 8, ptr %8) #8
  %11 = load i64, ptr %5, align 8, !tbaa !13
  %12 = load i64, ptr %6, align 8, !tbaa !13
  %13 = icmp ult i64 %11, %12
  br i1 %13, label %14, label %16

14:                                               ; preds = %3
  %15 = load i64, ptr %5, align 8, !tbaa !13
  br label %18

16:                                               ; preds = %3
  %17 = load i64, ptr %6, align 8, !tbaa !13
  br label %18

18:                                               ; preds = %16, %14
  %19 = phi i64 [ %15, %14 ], [ %17, %16 ]
  store i64 %19, ptr %8, align 8, !tbaa !13
  %20 = load ptr, ptr %7, align 8, !tbaa !12
  %21 = load ptr, ptr %4, align 8, !tbaa !12
  %22 = load i64, ptr %8, align 8, !tbaa !13
  call void @_Z15gim_simd_memcpyPvPKvm(ptr noundef %20, ptr noundef %21, i64 noundef %22)
  %23 = load ptr, ptr %4, align 8, !tbaa !12
  call void @_Z8gim_freePv(ptr noundef %23)
  %24 = load ptr, ptr %7, align 8, !tbaa !12
  call void @llvm.lifetime.end.p0(i64 8, ptr %8) #8
  call void @llvm.lifetime.end.p0(i64 8, ptr %7) #8
  ret ptr %24
}

; Function Attrs: inlinehint mustprogress nounwind uwtable
define linkonce_odr dso_local void @_Z15gim_simd_memcpyPvPKvm(ptr noundef %0, ptr noundef %1, i64 noundef %2) #5 comdat {
  %4 = alloca ptr, align 8
  %5 = alloca ptr, align 8
  %6 = alloca i64, align 8
  store ptr %0, ptr %4, align 8, !tbaa !12
  store ptr %1, ptr %5, align 8, !tbaa !12
  store i64 %2, ptr %6, align 8, !tbaa !13
  %7 = load ptr, ptr %4, align 8, !tbaa !12
  %8 = load ptr, ptr %5, align 8, !tbaa !12
  %9 = load i64, ptr %6, align 8, !tbaa !13
  call void @llvm.memcpy.p0.p0.i64(ptr align 1 %7, ptr align 1 %8, i64 %9, i1 false)
  ret void
}

; Function Attrs: mustprogress uwtable
define dso_local void @_Z8gim_freePv(ptr noundef %0) #2 {
  %2 = alloca ptr, align 8
  store ptr %0, ptr %2, align 8, !tbaa !12
  %3 = load ptr, ptr %2, align 8, !tbaa !12
  %4 = icmp ne ptr %3, null
  br i1 %4, label %6, label %5

5:                                                ; preds = %1
  br label %14

6:                                                ; preds = %1
  %7 = load ptr, ptr @_ZL8g_freefn, align 8, !tbaa !12
  %8 = icmp ne ptr %7, null
  br i1 %8, label %9, label %12

9:                                                ; preds = %6
  %10 = load ptr, ptr @_ZL8g_freefn, align 8, !tbaa !12
  %11 = load ptr, ptr %2, align 8, !tbaa !12
  call void %10(ptr noundef %11)
  br label %14

12:                                               ; preds = %6
  %13 = load ptr, ptr %2, align 8, !tbaa !12
  call void @free(ptr noundef %13) #8
  br label %14

14:                                               ; preds = %5, %12, %9
  ret void
}

; Function Attrs: nounwind
declare void @free(ptr noundef) #6

; Function Attrs: nocallback nofree nounwind willreturn memory(argmem: readwrite)
declare void @llvm.memcpy.p0.p0.i64(ptr noalias writeonly captures(none), ptr noalias readonly captures(none), i64, i1 immarg) #7

; Function Attrs: uwtable
define internal void @_GLOBAL__sub_I_gim_memory.cpp() #0 section ".text.startup" {
  call void @__cxx_global_var_init()
  ret void
}


!llvm.module.flags = !{!0, !1, !2, !3}

!0 = !{i32 1, !"wchar_size", i32 4}
!1 = !{i32 8, !"PIC Level", i32 2}
!2 = !{i32 7, !"PIE Level", i32 2}
!3 = !{i32 7, !"uwtable", i32 2}
!4 = !{!5, !5, i64 0}
!5 = !{!"p1 _ZTS18btInfMaskConverter", !6, i64 0}
!6 = !{!"any pointer", !7, i64 0}
!7 = !{!"omnipotent char", !8, i64 0}
!8 = !{!"Simple C++ TBAA"}
!9 = !{!10, !10, i64 0}
!10 = !{!"int", !7, i64 0}
!11 = !{!7, !7, i64 0}
!12 = !{!6, !6, i64 0}
!13 = !{!14, !14, i64 0}
!14 = !{!"long", !7, i64 0}
